; ModuleID = 'source-C-CXX/48/227.cpp'
source_filename = "source-C-CXX/48/227.cpp"
target datalayout = "e-m:e-p270:32:32-p271:32:32-p272:64:64-i64:64-f80:128-n8:16:32:64-S128"
target triple = "x86_64-pc-linux-gnu"

%"class.std::ios_base::Init" = type { i8 }
%"class.std::basic_istream" = type { i32 (...)**, i64, %"class.std::basic_ios" }
%"class.std::basic_ios" = type { %"class.std::ios_base", %"class.std::basic_ostream"*, i8, i8, %"class.std::basic_streambuf"*, %"class.std::ctype"*, %"class.std::num_put"*, %"class.std::num_get"* }
%"class.std::ios_base" = type { i32 (...)**, i64, i64, i32, i32, i32, %"struct.std::ios_base::_Callback_list"*, %"struct.std::ios_base::_Words", [8 x %"struct.std::ios_base::_Words"], i32, %"struct.std::ios_base::_Words"*, %"class.std::locale" }
%"struct.std::ios_base::_Callback_list" = type { %"struct.std::ios_base::_Callback_list"*, void (i32, %"class.std::ios_base"*, i32)*, i32, i32 }
%"struct.std::ios_base::_Words" = type { i8*, i64 }
%"class.std::locale" = type { %"class.std::locale::_Impl"* }
%"class.std::locale::_Impl" = type { i32, %"class.std::locale::facet"**, i64, %"class.std::locale::facet"**, i8** }
%"class.std::locale::facet" = type <{ i32 (...)**, i32, [4 x i8] }>
%"class.std::basic_ostream" = type { i32 (...)**, %"class.std::basic_ios" }
%"class.std::basic_streambuf" = type { i32 (...)**, i8*, i8*, i8*, i8*, i8*, i8*, %"class.std::locale" }
%"class.std::ctype" = type <{ %"class.std::locale::facet.base", [4 x i8], %struct.__locale_struct*, i8, [7 x i8], i32*, i32*, i16*, i8, [256 x i8], [256 x i8], i8, [6 x i8] }>
%"class.std::locale::facet.base" = type <{ i32 (...)**, i32 }>
%struct.__locale_struct = type { [13 x %struct.__locale_data*], i16*, i32*, i32*, [13 x i8*] }
%struct.__locale_data = type opaque
%"class.std::num_put" = type { %"class.std::locale::facet.base", [4 x i8] }
%"class.std::num_get" = type { %"class.std::locale::facet.base", [4 x i8] }

@_ZStL8__ioinit = internal global %"class.std::ios_base::Init" zeroinitializer, align 1
@__dso_handle = external hidden global i8
@_ZSt3cin = external global %"class.std::basic_istream", align 8
@_ZSt4cout = external global %"class.std::basic_ostream", align 8
@llvm.global_ctors = appending global [1 x { i32, void ()*, i8* }] [{ i32, void ()*, i8* } { i32 65535, void ()* @_GLOBAL__sub_I_227.cpp, i8* null }]

declare void @_ZNSt8ios_base4InitC1Ev(%"class.std::ios_base::Init"* nonnull align 1 dereferenceable(1)) unnamed_addr #0

; Function Attrs: nounwind
declare void @_ZNSt8ios_base4InitD1Ev(%"class.std::ios_base::Init"* nonnull align 1 dereferenceable(1)) unnamed_addr #1

; Function Attrs: nofree nounwind
declare i32 @__cxa_atexit(void (i8*)*, i8*, i8*) local_unnamed_addr #2

; Function Attrs: mustprogress norecurse sspstrong uwtable
define dso_local i32 @main() local_unnamed_addr #3 {
  %1 = alloca [501 x i8], align 16
  %2 = alloca [501 x i8], align 16
  %3 = getelementptr inbounds [501 x i8], [501 x i8]* %2, i64 0, i64 0
  %4 = alloca [501 x i8], align 16
  %5 = getelementptr inbounds [501 x i8], [501 x i8]* %4, i64 0, i64 0
  %6 = getelementptr inbounds [501 x i8], [501 x i8]* %1, i64 0, i64 0
  call void @llvm.lifetime.start.p0i8(i64 501, i8* nonnull %6) #11
  %7 = getelementptr inbounds [501 x i8], [501 x i8]* %2, i64 0, i64 0
  call void @llvm.lifetime.start.p0i8(i64 501, i8* nonnull %7) #11
  %8 = getelementptr inbounds [501 x i8], [501 x i8]* %4, i64 0, i64 0
  call void @llvm.lifetime.start.p0i8(i64 501, i8* nonnull %8) #11
  call void @_ZSt17__istream_extractRSiPcl(%"class.std::basic_istream"* nonnull align 8 dereferenceable(16) @_ZSt3cin, i8* nonnull %6, i64 501)
  %9 = call i64 @strlen(i8* noundef nonnull %6) #12
  %10 = trunc i64 %9 to i32
  %11 = icmp slt i32 %10, 2
  br i1 %11, label %138, label %12

12:                                               ; preds = %0
  %13 = add i64 %9, 4294967295
  %14 = and i64 %13, 4294967295
  %15 = and i64 %9, 4294967295
  br label %16

16:                                               ; preds = %12, %132
  %17 = phi i64 [ 2, %12 ], [ %133, %132 ]
  %18 = phi i64 [ 0, %12 ], [ %135, %132 ]
  %19 = phi i32 [ 2, %12 ], [ %134, %132 ]
  %20 = add nuw i64 %18, 2
  %21 = add nuw i64 %18, 2
  %22 = add nuw nsw i64 %18, 2
  call void @llvm.memset.p0i8.i64(i8* noundef nonnull align 16 dereferenceable(501) %5, i8 0, i64 501, i1 false)
  call void @llvm.memset.p0i8.i64(i8* noundef nonnull align 16 dereferenceable(501) %3, i8 0, i64 501, i1 false)
  %23 = icmp ult i64 %18, 6
  %24 = icmp ult i64 %18, 30
  %25 = and i64 %21, -32
  %26 = icmp eq i64 %21, %25
  %27 = and i64 %21, 24
  %28 = icmp eq i64 %27, 0
  %29 = and i64 %20, -8
  %30 = icmp eq i64 %20, %29
  br label %31

31:                                               ; preds = %16, %120
  %32 = phi i64 [ 0, %16 ], [ %34, %120 ]
  %33 = phi i32 [ 0, %16 ], [ %121, %120 ]
  %34 = add nuw nsw i64 %32, 1
  %35 = add nuw nsw i32 %33, %19
  %36 = icmp sgt i32 %35, %10
  br i1 %36, label %132, label %37

37:                                               ; preds = %31
  %38 = add nuw nsw i64 %22, %32
  %39 = trunc i64 %38 to i32
  %40 = trunc i64 %34 to i32
  %41 = call i32 @llvm.umax.i32(i32 %39, i32 %40)
  %42 = trunc i64 %32 to i32
  %43 = xor i32 %42, -1
  %44 = add i32 %41, %43
  %45 = zext i32 %44 to i64
  %46 = add nuw nsw i64 %45, 1
  %47 = getelementptr [501 x i8], [501 x i8]* %1, i64 0, i64 %32
  call void @llvm.memcpy.p0i8.p0i8.i64(i8* noundef nonnull align 16 %3, i8* noundef nonnull align 1 dereferenceable(1) %47, i64 %46, i1 false)
  br i1 %23, label %86, label %48

48:                                               ; preds = %37
  br i1 %24, label %70, label %49

49:                                               ; preds = %48, %49
  %50 = phi i64 [ %66, %49 ], [ 0, %48 ]
  %51 = xor i64 %50, -1
  %52 = add nsw i64 %17, %51
  %53 = getelementptr inbounds [501 x i8], [501 x i8]* %2, i64 0, i64 %52
  %54 = getelementptr inbounds i8, i8* %53, i64 -15
  %55 = bitcast i8* %54 to <16 x i8>*
  %56 = load <16 x i8>, <16 x i8>* %55, align 1, !tbaa !5
  %57 = shufflevector <16 x i8> %56, <16 x i8> poison, <16 x i32> <i32 15, i32 14, i32 13, i32 12, i32 11, i32 10, i32 9, i32 8, i32 7, i32 6, i32 5, i32 4, i32 3, i32 2, i32 1, i32 0>
  %58 = getelementptr inbounds i8, i8* %53, i64 -31
  %59 = bitcast i8* %58 to <16 x i8>*
  %60 = load <16 x i8>, <16 x i8>* %59, align 1, !tbaa !5
  %61 = shufflevector <16 x i8> %60, <16 x i8> poison, <16 x i32> <i32 15, i32 14, i32 13, i32 12, i32 11, i32 10, i32 9, i32 8, i32 7, i32 6, i32 5, i32 4, i32 3, i32 2, i32 1, i32 0>
  %62 = getelementptr inbounds [501 x i8], [501 x i8]* %4, i64 0, i64 %50
  %63 = bitcast i8* %62 to <16 x i8>*
  store <16 x i8> %57, <16 x i8>* %63, align 16, !tbaa !5
  %64 = getelementptr inbounds i8, i8* %62, i64 16
  %65 = bitcast i8* %64 to <16 x i8>*
  store <16 x i8> %61, <16 x i8>* %65, align 16, !tbaa !5
  %66 = add nuw i64 %50, 32
  %67 = icmp eq i64 %66, %25
  br i1 %67, label %68, label %49, !llvm.loop !8

68:                                               ; preds = %49
  br i1 %26, label %88, label %69

69:                                               ; preds = %68
  br i1 %28, label %86, label %70

70:                                               ; preds = %48, %69
  %71 = phi i64 [ %25, %69 ], [ 0, %48 ]
  br label %72

72:                                               ; preds = %72, %70
  %73 = phi i64 [ %71, %70 ], [ %83, %72 ]
  %74 = xor i64 %73, -1
  %75 = add nsw i64 %17, %74
  %76 = getelementptr inbounds [501 x i8], [501 x i8]* %2, i64 0, i64 %75
  %77 = getelementptr inbounds i8, i8* %76, i64 -7
  %78 = bitcast i8* %77 to <8 x i8>*
  %79 = load <8 x i8>, <8 x i8>* %78, align 1, !tbaa !5
  %80 = shufflevector <8 x i8> %79, <8 x i8> poison, <8 x i32> <i32 7, i32 6, i32 5, i32 4, i32 3, i32 2, i32 1, i32 0>
  %81 = getelementptr inbounds [501 x i8], [501 x i8]* %4, i64 0, i64 %73
  %82 = bitcast i8* %81 to <8 x i8>*
  store <8 x i8> %80, <8 x i8>* %82, align 8, !tbaa !5
  %83 = add nuw i64 %73, 8
  %84 = icmp eq i64 %83, %29
  br i1 %84, label %85, label %72, !llvm.loop !11

85:                                               ; preds = %72
  br i1 %30, label %88, label %86

86:                                               ; preds = %37, %69, %85
  %87 = phi i64 [ 0, %37 ], [ %25, %69 ], [ %29, %85 ]
  br label %123

88:                                               ; preds = %123, %85, %68
  %89 = call i32 @strcmp(i8* noundef nonnull %7, i8* noundef nonnull %8) #12
  %90 = icmp eq i32 %89, 0
  br i1 %90, label %91, label %120

91:                                               ; preds = %88
  %92 = call i64 @strlen(i8* noundef nonnull dereferenceable(1) %7) #11
  %93 = call nonnull align 8 dereferenceable(8) %"class.std::basic_ostream"* @_ZSt16__ostream_insertIcSt11char_traitsIcEERSt13basic_ostreamIT_T0_ES6_PKS3_l(%"class.std::basic_ostream"* nonnull align 8 dereferenceable(8) @_ZSt4cout, i8* nonnull %7, i64 %92)
  %94 = load i8*, i8** bitcast (%"class.std::basic_ostream"* @_ZSt4cout to i8**), align 8, !tbaa !12
  %95 = getelementptr i8, i8* %94, i64 -24
  %96 = bitcast i8* %95 to i64*
  %97 = load i64, i64* %96, align 8
  %98 = add nsw i64 %97, 240
  %99 = getelementptr inbounds i8, i8* bitcast (%"class.std::basic_ostream"* @_ZSt4cout to i8*), i64 %98
  %100 = bitcast i8* %99 to %"class.std::ctype"**
  %101 = load %"class.std::ctype"*, %"class.std::ctype"** %100, align 8, !tbaa !14
  %102 = icmp eq %"class.std::ctype"* %101, null
  br i1 %102, label %137, label %103

103:                                              ; preds = %91
  %104 = getelementptr inbounds %"class.std::ctype", %"class.std::ctype"* %101, i64 0, i32 8
  %105 = load i8, i8* %104, align 8, !tbaa !18
  %106 = icmp eq i8 %105, 0
  br i1 %106, label %110, label %107

107:                                              ; preds = %103
  %108 = getelementptr inbounds %"class.std::ctype", %"class.std::ctype"* %101, i64 0, i32 9, i64 10
  %109 = load i8, i8* %108, align 1, !tbaa !5
  br label %116

110:                                              ; preds = %103
  call void @_ZNKSt5ctypeIcE13_M_widen_initEv(%"class.std::ctype"* nonnull align 8 dereferenceable(570) %101)
  %111 = bitcast %"class.std::ctype"* %101 to i8 (%"class.std::ctype"*, i8)***
  %112 = load i8 (%"class.std::ctype"*, i8)**, i8 (%"class.std::ctype"*, i8)*** %111, align 8, !tbaa !12
  %113 = getelementptr inbounds i8 (%"class.std::ctype"*, i8)*, i8 (%"class.std::ctype"*, i8)** %112, i64 6
  %114 = load i8 (%"class.std::ctype"*, i8)*, i8 (%"class.std::ctype"*, i8)** %113, align 8
  %115 = call signext i8 %114(%"class.std::ctype"* nonnull align 8 dereferenceable(570) %101, i8 signext 10)
  br label %116

116:                                              ; preds = %110, %107
  %117 = phi i8 [ %109, %107 ], [ %115, %110 ]
  %118 = call nonnull align 8 dereferenceable(8) %"class.std::basic_ostream"* @_ZNSo3putEc(%"class.std::basic_ostream"* nonnull align 8 dereferenceable(8) @_ZSt4cout, i8 signext %117)
  %119 = call nonnull align 8 dereferenceable(8) %"class.std::basic_ostream"* @_ZNSo5flushEv(%"class.std::basic_ostream"* nonnull align 8 dereferenceable(8) %118)
  br label %120

120:                                              ; preds = %116, %88
  %121 = add nuw nsw i32 %33, 1
  %122 = icmp eq i64 %34, %15
  br i1 %122, label %132, label %31, !llvm.loop !20

123:                                              ; preds = %86, %123
  %124 = phi i64 [ %130, %123 ], [ %87, %86 ]
  %125 = xor i64 %124, -1
  %126 = add nsw i64 %17, %125
  %127 = getelementptr inbounds [501 x i8], [501 x i8]* %2, i64 0, i64 %126
  %128 = load i8, i8* %127, align 1, !tbaa !5
  %129 = getelementptr inbounds [501 x i8], [501 x i8]* %4, i64 0, i64 %124
  store i8 %128, i8* %129, align 1, !tbaa !5
  %130 = add nuw nsw i64 %124, 1
  %131 = icmp eq i64 %130, %17
  br i1 %131, label %88, label %123, !llvm.loop !21

132:                                              ; preds = %31, %120
  %133 = add nuw nsw i64 %17, 1
  %134 = add nuw nsw i32 %19, 1
  %135 = add nuw nsw i64 %18, 1
  %136 = icmp eq i64 %135, %14
  br i1 %136, label %138, label %16, !llvm.loop !23

137:                                              ; preds = %91
  call void @_ZSt16__throw_bad_castv() #13
  unreachable

138:                                              ; preds = %132, %0
  call void @llvm.lifetime.end.p0i8(i64 501, i8* nonnull %8) #11
  call void @llvm.lifetime.end.p0i8(i64 501, i8* nonnull %7) #11
  call void @llvm.lifetime.end.p0i8(i64 501, i8* nonnull %6) #11
  ret i32 0
}

; Function Attrs: argmemonly mustprogress nofree nosync nounwind willreturn
declare void @llvm.lifetime.start.p0i8(i64 immarg, i8* nocapture) #4

; Function Attrs: argmemonly mustprogress nofree nounwind readonly willreturn
declare i64 @strlen(i8* nocapture) local_unnamed_addr #5

; Function Attrs: argmemonly mustprogress nofree nounwind readonly willreturn
declare i32 @strcmp(i8* nocapture, i8* nocapture) local_unnamed_addr #5

; Function Attrs: argmemonly mustprogress nofree nosync nounwind willreturn
declare void @llvm.lifetime.end.p0i8(i64 immarg, i8* nocapture) #4

declare void @_ZSt17__istream_extractRSiPcl(%"class.std::basic_istream"* nonnull align 8 dereferenceable(16), i8*, i64) local_unnamed_addr #0

declare nonnull align 8 dereferenceable(8) %"class.std::basic_ostream"* @_ZSt16__ostream_insertIcSt11char_traitsIcEERSt13basic_ostreamIT_T0_ES6_PKS3_l(%"class.std::basic_ostream"* nonnull align 8 dereferenceable(8), i8*, i64) local_unnamed_addr #0

declare nonnull align 8 dereferenceable(8) %"class.std::basic_ostream"* @_ZNSo3putEc(%"class.std::basic_ostream"* nonnull align 8 dereferenceable(8), i8 signext) local_unnamed_addr #0

declare nonnull align 8 dereferenceable(8) %"class.std::basic_ostream"* @_ZNSo5flushEv(%"class.std::basic_ostream"* nonnull align 8 dereferenceable(8)) local_unnamed_addr #0

; Function Attrs: noreturn
declare void @_ZSt16__throw_bad_castv() local_unnamed_addr #6

declare void @_ZNKSt5ctypeIcE13_M_widen_initEv(%"class.std::ctype"* nonnull align 8 dereferenceable(570)) local_unnamed_addr #0

; Function Attrs: sspstrong uwtable
define internal void @_GLOBAL__sub_I_227.cpp() #7 section ".text.startup" {
  tail call void @_ZNSt8ios_base4InitC1Ev(%"class.std::ios_base::Init"* nonnull align 1 dereferenceable(1) @_ZStL8__ioinit)
  %1 = tail call i32 @__cxa_atexit(void (i8*)* bitcast (void (%"class.std::ios_base::Init"*)* @_ZNSt8ios_base4InitD1Ev to void (i8*)*), i8* getelementptr inbounds (%"class.std::ios_base::Init", %"class.std::ios_base::Init"* @_ZStL8__ioinit, i64 0, i32 0), i8* nonnull @__dso_handle) #11
  ret void
}

; Function Attrs: argmemonly nofree nounwind willreturn writeonly
declare void @llvm.memset.p0i8.i64(i8* nocapture writeonly, i8, i64, i1 immarg) #8

; Function Attrs: nofree nosync nounwind readnone speculatable willreturn
declare i32 @llvm.umax.i32(i32, i32) #9

; Function Attrs: argmemonly nofree nounwind willreturn
declare void @llvm.memcpy.p0i8.p0i8.i64(i8* noalias nocapture writeonly, i8* noalias nocapture readonly, i64, i1 immarg) #10


!llvm.module.flags = !{!0, !1, !2, !3}
!llvm.ident = !{!4}

!0 = !{i32 1, !"wchar_size", i32 4}
!1 = !{i32 7, !"PIC Level", i32 2}
!2 = !{i32 7, !"PIE Level", i32 2}
!3 = !{i32 7, !"uwtable", i32 1}
!4 = !{!"clang version 13.0.0"}
!5 = !{!6, !6, i64 0}
!6 = !{!"omnipotent char", !7, i64 0}
!7 = !{!"Simple C++ TBAA"}
!8 = distinct !{!8, !9, !10}
!9 = !{!"llvm.loop.mustprogress"}
!10 = !{!"llvm.loop.isvectorized", i32 1}
!11 = distinct !{!11, !9, !10}
!12 = !{!13, !13, i64 0}
!13 = !{!"vtable pointer", !7, i64 0}
!14 = !{!15, !16, i64 240}
!15 = !{!"_ZTSSt9basic_iosIcSt11char_traitsIcEE", !16, i64 216, !6, i64 224, !17, i64 225, !16, i64 232, !16, i64 240, !16, i64 248, !16, i64 256}
!16 = !{!"any pointer", !6, i64 0}
!17 = !{!"bool", !6, i64 0}
!18 = !{!19, !6, i64 56}
!19 = !{!"_ZTSSt5ctypeIcE", !16, i64 16, !17, i64 24, !16, i64 32, !16, i64 40, !16, i64 48, !6, i64 56, !6, i64 57, !6, i64 313, !6, i64 569}
!20 = distinct !{!20, !9}
!21 = distinct !{!21, !9, !22, !10}
!22 = !{!"llvm.loop.unroll.runtime.disable"}
!23 = distinct !{!23, !9}
